target datalayout = "e-m:e-p270:32:32-p271:32:32-p272:64:64-i64:64-i128:128-f80:128-n8:16:32:64-S128"
target triple = "x86_64-pc-linux-gnu"

@hf_gsm_sms_tp_pid = internal global i32 0, align 4
@hf_gsm_sms_tp_pid_format_subsequent_bits = internal global i32 0, align 4
@hf_gsm_sms_tp_pid_telematic_interworking = internal global i32 0, align 4
@hf_gsm_sms_tp_pid_device_type = internal global i32 0, align 4
@hf_gsm_sms_tp_pid_sm_al_proto = internal global i32 0, align 4
@hf_gsm_sms_tp_pid_message_type = internal global i32 0, align 4
@hf_gsm_sms_tp_pid_reserved = internal global i32 0, align 4
@hf_gsm_sms_tp_pid_undefined = internal global i32 0, align 4
@hf_gsm_sms_tp_pid_sc_specific_use = internal global i32 0, align 4
@hf_gsm_sms_tp_pid_sc_specific = internal global i32 0, align 4
@ett_pid = internal global i32 0, align 4

; Function Attrs: null_pointer_is_valid sspstrong uwtable
define internal void @dis_field_pid(ptr noundef %0, ptr noundef %1, i32 noundef %2, i8 noundef zeroext %3) #0 {
  %5 = alloca ptr, align 8
  %6 = alloca ptr, align 8
  %7 = alloca i32, align 4
  %8 = alloca i8, align 1
  %9 = alloca ptr, align 8
  %10 = alloca ptr, align 8
  store ptr %0, ptr %5, align 8
  store ptr %1, ptr %6, align 8
  store i32 %2, ptr %7, align 4
  store i8 %3, ptr %8, align 1
  call void @llvm.lifetime.start.p0(i64 8, ptr %9) #13
  call void @llvm.lifetime.start.p0(i64 8, ptr %10) #13
  %11 = load ptr, ptr %6, align 8
  %12 = load i32, ptr @hf_gsm_sms_tp_pid, align 4
  %13 = load ptr, ptr %5, align 8
  %14 = load i32, ptr %7, align 4
  %15 = call ptr @proto_tree_add_item(ptr noundef %11, i32 noundef %12, ptr noundef %13, i32 noundef %14, i32 noundef 1, i32 noundef 0)
  store ptr %15, ptr %9, align 8
  %16 = load ptr, ptr %9, align 8
  %17 = load i32, ptr @ett_pid, align 4
  %18 = call ptr @proto_item_add_subtree(ptr noundef %16, i32 noundef %17)
  store ptr %18, ptr %10, align 8
  %19 = load i8, ptr %8, align 1
  %20 = zext i8 %19 to i32
  %21 = and i32 %20, 192
  %22 = ashr i32 %21, 6
  switch i32 %22, label %84 [
    i32 0, label %23
    i32 1, label %51
    i32 2, label %62
    i32 3, label %73
  ]

23:                                               ; preds = %4
  %24 = load ptr, ptr %10, align 8
  %25 = load i32, ptr @hf_gsm_sms_tp_pid_format_subsequent_bits, align 4
  %26 = load ptr, ptr %5, align 8
  %27 = load i32, ptr %7, align 4
  %28 = call ptr @proto_tree_add_item(ptr noundef %24, i32 noundef %25, ptr noundef %26, i32 noundef %27, i32 noundef 1, i32 noundef 0)
  %29 = load ptr, ptr %10, align 8
  %30 = load i32, ptr @hf_gsm_sms_tp_pid_telematic_interworking, align 4
  %31 = load ptr, ptr %5, align 8
  %32 = load i32, ptr %7, align 4
  %33 = call ptr @proto_tree_add_item(ptr noundef %29, i32 noundef %30, ptr noundef %31, i32 noundef %32, i32 noundef 1, i32 noundef 0)
  %34 = load i8, ptr %8, align 1
  %35 = zext i8 %34 to i32
  %36 = and i32 %35, 32
  %37 = icmp ne i32 %36, 0
  br i1 %37, label %38, label %44

38:                                               ; preds = %23
  %39 = load ptr, ptr %10, align 8
  %40 = load i32, ptr @hf_gsm_sms_tp_pid_device_type, align 4
  %41 = load ptr, ptr %5, align 8
  %42 = load i32, ptr %7, align 4
  %43 = call ptr @proto_tree_add_item(ptr noundef %39, i32 noundef %40, ptr noundef %41, i32 noundef %42, i32 noundef 1, i32 noundef 0)
  br label %50

44:                                               ; preds = %23
  %45 = load ptr, ptr %10, align 8
  %46 = load i32, ptr @hf_gsm_sms_tp_pid_sm_al_proto, align 4
  %47 = load ptr, ptr %5, align 8
  %48 = load i32, ptr %7, align 4
  %49 = call ptr @proto_tree_add_item(ptr noundef %45, i32 noundef %46, ptr noundef %47, i32 noundef %48, i32 noundef 1, i32 noundef 0)
  br label %50

50:                                               ; preds = %44, %38
  br label %84

51:                                               ; preds = %4
  %52 = load ptr, ptr %10, align 8
  %53 = load i32, ptr @hf_gsm_sms_tp_pid_format_subsequent_bits, align 4
  %54 = load ptr, ptr %5, align 8
  %55 = load i32, ptr %7, align 4
  %56 = call ptr @proto_tree_add_item(ptr noundef %52, i32 noundef %53, ptr noundef %54, i32 noundef %55, i32 noundef 1, i32 noundef 0)
  %57 = load ptr, ptr %10, align 8
  %58 = load i32, ptr @hf_gsm_sms_tp_pid_message_type, align 4
  %59 = load ptr, ptr %5, align 8
  %60 = load i32, ptr %7, align 4
  %61 = call ptr @proto_tree_add_item(ptr noundef %57, i32 noundef %58, ptr noundef %59, i32 noundef %60, i32 noundef 1, i32 noundef 0)
  br label %84

62:                                               ; preds = %4
  %63 = load ptr, ptr %10, align 8
  %64 = load i32, ptr @hf_gsm_sms_tp_pid_reserved, align 4
  %65 = load ptr, ptr %5, align 8
  %66 = load i32, ptr %7, align 4
  %67 = call ptr @proto_tree_add_item(ptr noundef %63, i32 noundef %64, ptr noundef %65, i32 noundef %66, i32 noundef 1, i32 noundef 0)
  %68 = load ptr, ptr %10, align 8
  %69 = load i32, ptr @hf_gsm_sms_tp_pid_undefined, align 4
  %70 = load ptr, ptr %5, align 8
  %71 = load i32, ptr %7, align 4
  %72 = call ptr @proto_tree_add_item(ptr noundef %68, i32 noundef %69, ptr noundef %70, i32 noundef %71, i32 noundef 1, i32 noundef 0)
  br label %84

73:                                               ; preds = %4
  %74 = load ptr, ptr %10, align 8
  %75 = load i32, ptr @hf_gsm_sms_tp_pid_sc_specific_use, align 4
  %76 = load ptr, ptr %5, align 8
  %77 = load i32, ptr %7, align 4
  %78 = call ptr @proto_tree_add_item(ptr noundef %74, i32 noundef %75, ptr noundef %76, i32 noundef %77, i32 noundef 1, i32 noundef 0)
  %79 = load ptr, ptr %10, align 8
  %80 = load i32, ptr @hf_gsm_sms_tp_pid_sc_specific, align 4
  %81 = load ptr, ptr %5, align 8
  %82 = load i32, ptr %7, align 4
  %83 = call ptr @proto_tree_add_item(ptr noundef %79, i32 noundef %80, ptr noundef %81, i32 noundef %82, i32 noundef 1, i32 noundef 0)
  br label %84

84:                                               ; preds = %4, %73, %62, %51, %50
  call void @llvm.lifetime.end.p0(i64 8, ptr %10) #13
  call void @llvm.lifetime.end.p0(i64 8, ptr %9) #13
  ret void
}