; Function Attrs: null_pointer_is_valid sspstrong uwtable
define internal fastcc void @dis_field_pid(ptr noundef %0, ptr noundef %1, i32 noundef %2, i8 noundef zeroext %3) unnamed_addr #0 {
  %5 = load i32, ptr @hf_gsm_sms_tp_pid, align 4
  %6 = tail call ptr @proto_tree_add_item(ptr noundef %1, i32 noundef %5, ptr noundef %0, i32 noundef %2, i32 noundef 1, i32 noundef 0)
  %7 = load i32, ptr @ett_pid, align 4
  %8 = tail call ptr @proto_item_add_subtree(ptr noundef %6, i32 noundef %7)
  %9 = zext i8 %3 to i32
  %10 = lshr i32 %9, 6
  switch i32 %10, label %default.unreachable35 [
    i32 0, label %11
    i32 1, label %17
    i32 2, label %20
    i32 3, label %23
  ]

11:                                               ; preds = %4
  %12 = load i32, ptr @hf_gsm_sms_tp_pid_format_subsequent_bits, align 4
  %13 = tail call ptr @proto_tree_add_item(ptr noundef %8, i32 noundef %12, ptr noundef %0, i32 noundef %2, i32 noundef 1, i32 noundef 0)
  %14 = load i32, ptr @hf_gsm_sms_tp_pid_telematic_interworking, align 4
  %15 = tail call ptr @proto_tree_add_item(ptr noundef %8, i32 noundef %14, ptr noundef %0, i32 noundef %2, i32 noundef 1, i32 noundef 0)
  %16 = and i32 %9, 32
  %.not = icmp eq i32 %16, 0
  %hf_gsm_sms_tp_pid_sm_al_proto.hf_gsm_sms_tp_pid_device_type = select i1 %.not, ptr @hf_gsm_sms_tp_pid_sm_al_proto, ptr @hf_gsm_sms_tp_pid_device_type
  br label %26

17:                                               ; preds = %4
  %18 = load i32, ptr @hf_gsm_sms_tp_pid_format_subsequent_bits, align 4
  %19 = tail call ptr @proto_tree_add_item(ptr noundef %8, i32 noundef %18, ptr noundef %0, i32 noundef %2, i32 noundef 1, i32 noundef 0)
  br label %26

20:                                               ; preds = %4
  %21 = load i32, ptr @hf_gsm_sms_tp_pid_reserved, align 4
  %22 = tail call ptr @proto_tree_add_item(ptr noundef %8, i32 noundef %21, ptr noundef %0, i32 noundef %2, i32 noundef 1, i32 noundef 0)
  br label %26

23:                                               ; preds = %4
  %24 = load i32, ptr @hf_gsm_sms_tp_pid_sc_specific_use, align 4
  %25 = tail call ptr @proto_tree_add_item(ptr noundef %8, i32 noundef %24, ptr noundef %0, i32 noundef %2, i32 noundef 1, i32 noundef 0)
  br label %26

default.unreachable35:                            ; preds = %4
  unreachable

26:                                               ; preds = %11, %23, %20, %17
  %hf_gsm_sms_tp_pid_device_type.sink = phi ptr [ @hf_gsm_sms_tp_pid_sc_specific, %23 ], [ @hf_gsm_sms_tp_pid_undefined, %20 ], [ @hf_gsm_sms_tp_pid_message_type, %17 ], [ %hf_gsm_sms_tp_pid_sm_al_proto.hf_gsm_sms_tp_pid_device_type, %11 ]
  %27 = load i32, ptr %hf_gsm_sms_tp_pid_device_type.sink, align 4
  %28 = tail call ptr @proto_tree_add_item(ptr noundef %8, i32 noundef %27, ptr noundef %0, i32 noundef %2, i32 noundef 1, i32 noundef 0)
  ret void
}